; Function Attrs: nounwind uwtable
define dso_local noundef zeroext i1 @BecomeLockGroupMember(ptr noundef %0, i32 noundef %1) local_unnamed_addr #0 {
  %3 = load ptr, ptr @MainLWLockArray, align 8
  %4 = load ptr, ptr @ProcGlobal, align 8
  %5 = load ptr, ptr %4, align 8
  %6 = ptrtoint ptr %0 to i64
  %7 = ptrtoint ptr %5 to i64
  %8 = sub i64 %6, %7
  %9 = sdiv exact i64 %8, 832
  %10 = srem i64 %9, 16
  %11 = getelementptr %union.LWLockPadded, ptr %3, i64 %10
  %12 = getelementptr i8, ptr %11, i64 23168
  %13 = tail call zeroext i1 @LWLockAcquire(ptr noundef %12, i32 noundef 0) #14
  %14 = getelementptr inbounds nuw i8, ptr %0, i64 60
  %15 = load i32, ptr %14, align 4
  %16 = icmp eq i32 %15, %1
  br i1 %16, label %17, label %33

17:                                               ; preds = %2
  %18 = getelementptr inbounds nuw i8, ptr %0, i64 792
  %19 = load ptr, ptr %18, align 8
  %20 = icmp eq ptr %19, %0
  br i1 %20, label %21, label %33

21:                                               ; preds = %17
  %22 = load ptr, ptr @MyProc, align 8
  %23 = getelementptr inbounds nuw i8, ptr %22, i64 792
  store ptr %0, ptr %23, align 8
  %24 = getelementptr inbounds nuw i8, ptr %0, i64 800
  %25 = getelementptr inbounds nuw i8, ptr %22, i64 816
  %26 = getelementptr inbounds nuw i8, ptr %0, i64 808
  %27 = load ptr, ptr %26, align 8
  %28 = icmp eq ptr %27, null
  br i1 %28, label %29, label %dlist_push_tail.exit

29:                                               ; preds = %21
  store ptr %24, ptr %24, align 8
  store ptr %24, ptr %26, align 8
  br label %dlist_push_tail.exit

dlist_push_tail.exit:                             ; preds = %21, %29
  %30 = getelementptr inbounds nuw i8, ptr %22, i64 824
  store ptr %24, ptr %30, align 8
  %31 = load ptr, ptr %24, align 8
  store ptr %31, ptr %25, align 8
  %32 = getelementptr inbounds nuw i8, ptr %31, i64 8
  store ptr %25, ptr %32, align 8
  store ptr %25, ptr %24, align 8
  br label %33

33:                                               ; preds = %dlist_push_tail.exit, %17, %2
  %.0 = phi i1 [ true, %dlist_push_tail.exit ], [ false, %17 ], [ false, %2 ]
  tail call void @LWLockRelease(ptr noundef %12) #14
  ret i1 %.0
}